; Function Attrs: nounwind uwtable
define ptr @l_Lean_Elab_checkNotAlreadyDeclared___rarg___lambda__7___boxed(ptr noundef %0, ptr noundef %1, ptr noundef %2, ptr noundef %3, ptr noundef %4, ptr noundef %5, ptr noundef %6, ptr noundef %7) #0 {
  %9 = tail call ptr @l_Lean_Elab_checkNotAlreadyDeclared___rarg___lambda__7(ptr noundef %0, ptr noundef %1, ptr noundef %2, ptr noundef %3, ptr noundef %4, ptr noundef %5, ptr noundef %6, ptr poison)
  %10 = ptrtoint ptr %7 to i64
  %11 = and i64 %10, 1
  %.not = icmp eq i64 %11, 0
  br i1 %.not, label %12, label %lean_dec.exit

12:                                               ; preds = %8
  %13 = load i32, ptr %7, align 4, !tbaa !4
  %14 = icmp sgt i32 %13, 1
  br i1 %14, label %15, label %17, !prof !13

15:                                               ; preds = %12
  %16 = add nsw i32 %13, -1
  store i32 %16, ptr %7, align 4, !tbaa !4
  br label %lean_dec.exit

17:                                               ; preds = %12
  %.not.i = icmp eq i32 %13, 0
  br i1 %.not.i, label %lean_dec.exit, label %18

18:                                               ; preds = %17
  tail call void @lean_dec_ref_cold(ptr noundef nonnull %7) #7
  br label %lean_dec.exit

lean_dec.exit:                                    ; preds = %18, %17, %15, %8
  ret ptr %9
}